target datalayout = "e-m:e-p270:32:32-p271:32:32-p272:64:64-i64:64-i128:128-f80:128-n8:16:32:64-S128"
target triple = "x86_64-pc-linux-gnu"

%struct._lv_global_t = type { i8, i8, %struct.lv_ll_t, ptr, ptr, %struct.lv_ll_t, i8, i32, i32, ptr, %struct.lv_ll_t, ptr, %struct.lv_ll_t, ptr, ptr, i32, ptr, i8, i32, i32, ptr, i32, %struct.lv_timer_state_t, %struct.lv_anim_state_t, %struct.lv_tick_state_t, %struct._lv_draw_buf_handlers_t, %struct._lv_draw_buf_handlers_t, %struct._lv_draw_buf_handlers_t, %struct.lv_ll_t, ptr, ptr, %struct.lv_draw_global_info_t, [4 x %struct.lv_draw_sw_mask_radius_circle_dsc_t], ptr, ptr, ptr, %struct.lv_tlsf_state_t, %struct.lv_ll_t, ptr, ptr, %struct.lv_style_t, i64, ptr, i32, ptr }
%struct.lv_timer_state_t = type { %struct.lv_ll_t, i8, i8, i8, i8, i32, i8, i32, i32, i32, i32, ptr, ptr }
%struct.lv_anim_state_t = type { i8, i8, ptr, %struct.lv_ll_t }
%struct.lv_tick_state_t = type { i32, i8, ptr, ptr }
%struct._lv_draw_buf_handlers_t = type { ptr, ptr, ptr, ptr, ptr, ptr }
%struct.lv_draw_global_info_t = type { ptr, i32, i32, i32, i32, i8 }
%struct.lv_draw_sw_mask_radius_circle_dsc_t = type { ptr, ptr, ptr, ptr, i32, i32, i32 }
%struct.lv_tlsf_state_t = type { ptr, i64, i64, %struct.lv_ll_t }
%struct.lv_ll_t = type { i32, ptr, ptr }
%struct.lv_style_t = type { ptr, i32, i8 }
%struct.lv_area_t = type { i32, i32, i32, i32 }
%struct._lv_layer_t = type { ptr, %struct.lv_area_t, i32, %struct.lv_area_t, %struct.lv_area_t, i8, i32, ptr, ptr, ptr, i8, ptr }
%struct._lv_display_t = type { i32, i32, i32, i32, i32, i32, i32, ptr, ptr, ptr, ptr, ptr, i32, i32, i8, i32, i16, i32, [32 x %struct.lv_area_t], [32 x i8], i32, i32, %struct.lv_ll_t, %struct._lv_draw_buf_t, %struct._lv_draw_buf_t, ptr, ptr, ptr, ptr, ptr, ptr, ptr, ptr, ptr, ptr, i32, i8, ptr, ptr, %struct.lv_event_list_t, i8, ptr, ptr, i32, %struct.lv_area_t }
%struct._lv_draw_buf_t = type { %struct.lv_image_header_t, i32, ptr, ptr, ptr }
%struct.lv_image_header_t = type <{ i64, i32 }>
%struct.lv_event_list_t = type { %struct._lv_array_t, i8 }
%struct._lv_array_t = type { ptr, i32, i32, i32, i8 }

@lv_global = external global %struct._lv_global_t, align 8

; Function Attrs: nounwind uwtable
define void @lv_draw_dispatch_request() #0 {
  store volatile i32 1, ptr getelementptr inbounds nuw (%struct.lv_draw_global_info_t, ptr getelementptr inbounds nuw (%struct._lv_global_t, ptr @lv_global, i32 0, i32 31), i32 0, i32 3), align 8, !tbaa !97
  ret void
}

; Function Attrs: nounwind uwtable
define void @lv_draw_wait_for_finish() #0 {
  ret void
}

; Function Attrs: nounwind uwtable
define void @lv_draw_dispatch() #0 {
  %1 = alloca i8, align 1
  %2 = alloca ptr, align 8
  %3 = alloca ptr, align 8
  call void @llvm.lifetime.start.p0(i64 1, ptr %1) #5
  store i8 0, ptr %1, align 1, !tbaa !68
  call void @llvm.lifetime.start.p0(i64 8, ptr %2) #5
  %4 = call ptr @lv_display_get_next(ptr noundef null)
  store ptr %4, ptr %2, align 8, !tbaa !69
  br label %5

5:                                                ; preds = %28, %0
  %6 = load ptr, ptr %2, align 8, !tbaa !69
  %7 = icmp ne ptr %6, null
  br i1 %7, label %8, label %31

8:                                                ; preds = %5
  call void @llvm.lifetime.start.p0(i64 8, ptr %3) #5
  %9 = load ptr, ptr %2, align 8, !tbaa !69
  %10 = getelementptr inbounds nuw %struct._lv_display_t, ptr %9, i32 0, i32 25
  %11 = load ptr, ptr %10, align 8, !tbaa !70
  store ptr %11, ptr %3, align 8, !tbaa !39
  br label %12

12:                                               ; preds = %20, %8
  %13 = load ptr, ptr %3, align 8, !tbaa !39
  %14 = icmp ne ptr %13, null
  br i1 %14, label %15, label %24

15:                                               ; preds = %12
  %16 = load ptr, ptr %2, align 8, !tbaa !69
  %17 = load ptr, ptr %3, align 8, !tbaa !39
  %18 = call zeroext i1 @lv_draw_dispatch_layer(ptr noundef %16, ptr noundef %17)
  br i1 %18, label %19, label %20

19:                                               ; preds = %15
  store i8 1, ptr %1, align 1, !tbaa !68
  br label %20

20:                                               ; preds = %19, %15
  %21 = load ptr, ptr %3, align 8, !tbaa !39
  %22 = getelementptr inbounds nuw %struct._lv_layer_t, ptr %21, i32 0, i32 9
  %23 = load ptr, ptr %22, align 8, !tbaa !79
  store ptr %23, ptr %3, align 8, !tbaa !39
  br label %12, !llvm.loop !80

24:                                               ; preds = %12
  %25 = load i8, ptr %1, align 1, !tbaa !68, !range !59, !noundef !60
  %26 = trunc i8 %25 to i1
  br i1 %26, label %28, label %27

27:                                               ; preds = %24
  call void @lv_draw_wait_for_finish()
  call void @lv_draw_dispatch_request()
  br label %28

28:                                               ; preds = %27, %24
  %29 = load ptr, ptr %2, align 8, !tbaa !69
  %30 = call ptr @lv_display_get_next(ptr noundef %29)
  store ptr %30, ptr %2, align 8, !tbaa !69
  call void @llvm.lifetime.end.p0(i64 8, ptr %3) #5
  br label %5, !llvm.loop !81

31:                                               ; preds = %5
  call void @llvm.lifetime.end.p0(i64 8, ptr %2) #5
  call void @llvm.lifetime.end.p0(i64 1, ptr %1) #5
  ret void
}