; Function Attrs: nounwind uwtable
define void @lv_draw_dispatch() local_unnamed_addr #1 {
  %1 = tail call ptr @lv_display_get_next(ptr noundef null) #11
  %.not14 = icmp eq ptr %1, null
  br i1 %.not14, label %._crit_edge19, label %.lr.ph18

.lr.ph18:                                         ; preds = %0, %6
  %.0716 = phi ptr [ %7, %6 ], [ %1, %0 ]
  %.0815 = phi i1 [ %.1.lcssa, %6 ], [ false, %0 ]
  %2 = getelementptr inbounds nuw i8, ptr %.0716, i64 752
  %.010 = load ptr, ptr %2, align 8, !tbaa !62
  %.not911 = icmp eq ptr %.010, null
  br i1 %.not911, label %._crit_edge, label %.lr.ph

.lr.ph:                                           ; preds = %.lr.ph18, %.lr.ph
  %.013 = phi ptr [ %.0, %.lr.ph ], [ %.010, %.lr.ph18 ]
  %.112 = phi i1 [ %spec.select, %.lr.ph ], [ %.0815, %.lr.ph18 ]
  %3 = tail call zeroext i1 @lv_draw_dispatch_layer(ptr noundef nonnull %.0716, ptr noundef nonnull %.013)
  %spec.select = select i1 %3, i1 true, i1 %.112
  %4 = getelementptr inbounds nuw i8, ptr %.013, i64 88
  %.0 = load ptr, ptr %4, align 8, !tbaa !62
  %.not9 = icmp eq ptr %.0, null
  br i1 %.not9, label %._crit_edge, label %.lr.ph, !llvm.loop !63

._crit_edge:                                      ; preds = %.lr.ph, %.lr.ph18
  %.1.lcssa = phi i1 [ %.0815, %.lr.ph18 ], [ %spec.select, %.lr.ph ]
  br i1 %.1.lcssa, label %6, label %5

5:                                                ; preds = %._crit_edge
  store volatile i32 1, ptr getelementptr inbounds nuw (i8, ptr @lv_global, i64 552), align 8, !tbaa !64
  br label %6

6:                                                ; preds = %5, %._crit_edge
  %7 = tail call ptr @lv_display_get_next(ptr noundef nonnull %.0716) #11
  %.not = icmp eq ptr %7, null
  br i1 %.not, label %._crit_edge19, label %.lr.ph18, !llvm.loop !65

._crit_edge19:                                    ; preds = %6, %0
  ret void
}